Certificate:
    Data:
        Version: 3 (0x2)
        Serial Number:
            57:4b:ee:e4:fa:c2:ca:22:d6:42:da:94:c4:76:6c:9c:4a:d1:a9:b9
        Signature Algorithm: sha256WithRSAEncryption
        Issuer: CN = PGCA
        Validity
            Not Before: Jun 22 09:39:50 2021 GMT
            Not After : Nov  7 09:39:50 2048 GMT
        Subject: CN = postgres
        Subject Public Key Info:
            Public Key Algorithm: rsaEncryption
                RSA Public-Key: (4096 bit)
                Modulus:
                    00:b2:a9:64:76:c8:80:85:76:df:a4:39:cb:ef:d7:
                    f6:28:2d:1f:70:29:c7:3e:74:a1:6d:12:1d:59:41:
                    88:71:5c:be:2d:a5:be:49:7c:29:78:0f:bc:70:7b:
                    60:56:65:be:79:27:df:b7:5b:54:08:ed:04:89:a7:
                    2d:ff:99:d0:48:49:56:29:3b:10:3b:f4:51:6d:34:
                    1a:b5:4d:05:36:0c:8b:25:4d:ae:01:ad:68:40:73:
                    20:b9:9d:b7:b2:78:10:37:ad:27:66:9c:2c:bb:ad:
                    79:35:ab:00:71:4a:9e:75:71:1a:d7:fd:0e:5d:41:
                    b5:29:6b:e6:d2:c1:c0:fe:4e:10:a8:d0:39:f0:d7:
                    0e:65:59:de:62:c7:8e:31:b0:20:39:b6:b9:f9:aa:
                    7e:0a:32:69:92:c3:da:6e:89:d5:34:00:3d:82:7e:
                    2f:cb:43:d6:96:46:c6:de:0d:64:c7:72:4e:7f:64:
                    72:ea:da:ed:a8:26:27:9d:2b:1f:8b:dc:2d:d6:de:
                    0e:a0:04:db:4a:58:4e:ae:72:72:b9:33:47:c1:2c:
                    30:db:a8:56:e1:7d:11:3a:cc:d7:fa:4e:b4:bb:96:
                    83:90:8d:1a:5d:c5:9f:68:95:13:c1:34:8b:0e:0e:
                    36:65:85:32:b7:20:01:11:dd:46:a1:6c:2f:cc:cb:
                    2d:11:0a:ee:03:40:cc:03:5b:19:0e:68:6d:48:e6:
                    e8:c8:72:c3:6f:d9:7a:ec:44:dc:68:65:5e:32:ef:
                    83:28:18:ed:51:95:15:a4:b1:53:43:4e:e3:8d:28:
                    ec:bc:fc:96:a2:86:9b:9d:89:58:ad:f2:57:1b:da:
                    4c:30:40:87:26:0e:06:77:81:56:ef:70:8b:0e:34:
                    77:65:e2:9a:76:47:a3:fa:af:30:1a:8d:1a:00:7c:
                    0c:a6:47:6f:4a:9f:dd:57:8f:f1:3f:7d:b5:cf:3f:
                    c1:40:0e:13:6d:c8:a5:9d:89:fc:15:19:90:b2:69:
                    74:58:f9:f4:6f:99:f4:2b:1c:33:db:a8:6a:e7:93:
                    8b:21:51:f1:fb:fc:bc:a7:22:c9:61:c5:26:01:3b:
                    44:87:ae:50:54:3a:d8:f9:ca:43:0f:5e:3a:cd:64:
                    6a:62:9a:7c:e5:23:aa:40:a4:90:1a:ea:4f:98:2a:
                    07:ac:f6:b8:a4:92:33:1b:bf:19:c9:87:dd:20:b9:
                    79:53:eb:51:4b:69:c2:04:57:5f:60:d9:86:24:13:
                    1c:bc:bf:96:21:8c:b8:8c:ff:5f:af:f7:4c:95:2c:
                    10:05:79:e7:4f:24:17:09:9b:4f:fb:2d:4f:29:7d:
                    98:7f:ec:4b:98:ce:f9:02:11:c7:61:60:52:e3:78:
                    1c:b3:9d
                Exponent: 65537 (0x10001)
        X509v3 extensions:
            X509v3 Subject Alternative Name: 
                DNS:db, DNS:localhost
    Signature Algorithm: sha256WithRSAEncryption
         0f:3c:68:8b:2a:c6:8f:9b:0f:da:0e:6c:78:6f:55:ec:94:1e:
         b9:7c:62:89:bc:1b:4f:2d:7d:29:53:e5:28:a0:b8:e5:79:8e:
         ca:24:56:80:66:6b:a7:6e:85:95:e5:2c:ff:7b:c2:a5:44:c5:
         e2:51:78:ee:23:3b:01:36:4e:71:bd:0f:5f:74:b9:f0:fb:b9:
         fc:8e:0b:8d:a5:03:d5:13:bd:d6:07:87:75:0b:22:db:67:4c:
         cd:9a:3b:dd:e6:ba:4b:40:e6:02:0d:44:10:72:b5:db:01:5e:
         a1:24:f4:e2:c1:5f:f8:72:23:79:03:0f:09:10:34:15:e5:d6:
         b8:9b:b6:c7:79:ac:40:18:e2:24:79:b0:ad:c0:3d:60:be:1c:
         e2:0c:8b:8f:25:a6:f3:81:6f:2e:9d:33:6b:07:cf:10:55:63:
         10:85:01:da:63:bd:8c:c1:a9:e8:18:cd:c9:a5:39:ab:58:3e:
         6d:3f:15:35:60:db:56:a6:b9:af:1d:a4:4f:62:6f:79:1e:3f:
         a5:e3:d3:d0:78:79:09:d3:83:22:7a:34:a7:62:e3:f8:5a:89:
         09:46:93:18:e8:e4:0d:d6:e0:fc:ed:dd:cc:e0:14:83:94:f2:
         58:60:40:8c:59:7a:47:37:5f:7c:22:04:9d:fd:9b:1e:ab:ad:
         78:7f:4d:8a:65:1c:fa:04:5a:87:6d:7e:c7:10:25:f0:91:3c:
         3d:f0:42:b3:6c:1e:7d:d5:7a:19:2a:67:57:33:75:d5:af:78:
         50:53:d1:5f:1c:f5:47:83:09:02:2a:13:17:5b:f6:77:95:ab:
         b0:fc:58:6b:4c:95:55:8a:6b:05:45:6d:c4:da:d5:32:b3:23:
         5f:7e:9e:e1:35:45:eb:19:57:51:63:c9:9b:6b:06:b3:5b:6a:
         4b:e9:82:29:81:92:e7:01:c6:17:6c:c6:de:a3:ce:83:a6:6b:
         e6:6e:f5:ac:ef:51:02:57:40:d0:20:c2:ef:33:ad:56:78:90:
         30:ae:8e:a4:42:06:7a:c1:6b:cd:f2:0c:6b:a1:7f:99:25:cd:
         24:88:71:93:c8:a3:73:06:f6:9e:7b:64:37:ba:aa:cc:fc:a1:
         f9:13:3b:62:ef:8a:4e:f4:7b:ba:ec:0a:2f:ab:3b:81:7b:f6:
         ab:9f:0e:03:dd:b9:21:0a:94:17:ee:06:53:ba:f3:2b:97:da:
         d5:8c:d2:e1:44:96:5f:af:3d:bc:17:53:a5:df:84:c1:ab:32:
         ed:1c:25:ab:22:b0:7d:ed:f0:03:05:e9:ba:79:e5:35:a7:2d:
         be:bc:7e:02:d5:26:d8:45:b1:53:12:67:27:e7:bd:67:9f:a4:
         27:27:51:60:2a:2f:fc:9f
-----BEGIN CERTIFICATE-----
MIIEzDCCArSgAwIBAgIUV0vu5PrCyiLWQtqUxHZsnErRqbkwDQYJKoZIhvcNAQEL
BQAwDzENMAsGA1UEAwwEUEdDQTAeFw0yMTA2MjIwOTM5NTBaFw00ODExMDcwOTM5
NTBaMBMxETAPBgNVBAMMCHBvc3RncmVzMIICIjANBgkqhkiG9w0BAQEFAAOCAg8A
MIICCgKCAgEAsqlkdsiAhXbfpDnL79f2KC0fcCnHPnShbRIdWUGIcVy+LaW+SXwp
eA+8cHtgVmW+eSfft1tUCO0Eiact/5nQSElWKTsQO/RRbTQatU0FNgyLJU2uAa1o
QHMguZ23sngQN60nZpwsu615NasAcUqedXEa1/0OXUG1KWvm0sHA/k4QqNA58NcO
ZVneYseOMbAgOba5+ap+CjJpksPabonVNAA9gn4vy0PWlkbG3g1kx3JOf2Ry6trt
qCYnnSsfi9wt1t4OoATbSlhOrnJyuTNHwSww26hW4X0ROszX+k60u5aDkI0aXcWf
aJUTwTSLDg42ZYUytyABEd1GoWwvzMstEQruA0DMA1sZDmhtSOboyHLDb9l67ETc
aGVeMu+DKBjtUZUVpLFTQ07jjSjsvPyWooabnYlYrfJXG9pMMECHJg4Gd4FW73CL
DjR3ZeKadkej+q8wGo0aAHwMpkdvSp/dV4/xP321zz/BQA4TbcilnYn8FRmQsml0
WPn0b5n0Kxwz26hq55OLIVHx+/y8pyLJYcUmATtEh65QVDrY+cpDD146zWRqYpp8
5SOqQKSQGupPmCoHrPa4pJIzG78ZyYfdILl5U+tRS2nCBFdfYNmGJBMcvL+WIYy4
jP9fr/dMlSwQBXnnTyQXCZtP+y1PKX2Yf+xLmM75AhHHYWBS43gcs50CAwEAAaMc
MBowGAYDVR0RBBEwD4ICZGKCCWxvY2FsaG9zdDANBgkqhkiG9w0BAQsFAAOCAgEA
DzxoiyrGj5sP2g5seG9V7JQeuXxiibwbTy19KVPlKKC45XmOyiRWgGZrp26FleUs
/3vCpUTF4lF47iM7ATZOcb0PX3S58Pu5/I4LjaUD1RO91geHdQsi22dMzZo73ea6
S0DmAg1EEHK12wFeoST04sFf+HIjeQMPCRA0FeXWuJu2x3msQBjiJHmwrcA9YL4c
4gyLjyWm84FvLp0zawfPEFVjEIUB2mO9jMGp6BjNyaU5q1g+bT8VNWDbVqa5rx2k
T2JveR4/pePT0Hh5CdODIno0p2Lj+FqJCUaTGOjkDdbg/O3dzOAUg5TyWGBAjFl6
RzdffCIEnf2bHquteH9NimUc+gRah21+xxAl8JE8PfBCs2wefdV6GSpnVzN11a94
UFPRXxz1R4MJAioTF1v2d5WrsPxYa0yVVYprBUVtxNrVMrMjX36e4TVF6xlXUWPJ
m2sGs1tqS+mCKYGS5wHGF2zG3qPOg6Zr5m71rO9RAldA0CDC7zOtVniQMK6OpEIG
esFrzfIMa6F/mSXNJIhxk8ijcwb2nntkN7qqzPyh+RM7Yu+KTvR7uuwKL6s7gXv2
q58OA925IQqUF+4GU7rzK5fa1YzS4USWX689vBdTpd+Ewasy7RwlqyKwfe3wAwXp
unnlNactvrx+AtUm2EWxUxJnJ+e9Z5+kJydRYCov/J8=
-----END CERTIFICATE-----
